target datalayout = "e-m:e-p270:32:32-p271:32:32-p272:64:64-i64:64-i128:128-f80:128-n8:16:32:64-S128"
target triple = "x86_64-pc-linux-gnu"

%struct.mpd_context_t = type { i64, i64, i64, i32, i32, i32, i32, i32, i32 }

; Function Attrs: nounwind uwtable
define hidden void @mpd_basiccontext(ptr noundef %0) #0 {
  %2 = alloca ptr, align 8
  store ptr %0, ptr %2, align 8, !tbaa !3
  %3 = load ptr, ptr %2, align 8, !tbaa !3
  %4 = getelementptr inbounds nuw %struct.mpd_context_t, ptr %3, i32 0, i32 0
  store i64 9, ptr %4, align 8, !tbaa !14
  %5 = load ptr, ptr %2, align 8, !tbaa !3
  %6 = getelementptr inbounds nuw %struct.mpd_context_t, ptr %5, i32 0, i32 1
  store i64 999999999999999999, ptr %6, align 8, !tbaa !16
  %7 = load ptr, ptr %2, align 8, !tbaa !3
  %8 = getelementptr inbounds nuw %struct.mpd_context_t, ptr %7, i32 0, i32 2
  store i64 -999999999999999999, ptr %8, align 8, !tbaa !17
  %9 = load ptr, ptr %2, align 8, !tbaa !3
  %10 = getelementptr inbounds nuw %struct.mpd_context_t, ptr %9, i32 0, i32 6
  store i32 4, ptr %10, align 4, !tbaa !18
  %11 = load ptr, ptr %2, align 8, !tbaa !3
  %12 = getelementptr inbounds nuw %struct.mpd_context_t, ptr %11, i32 0, i32 3
  store i32 19391, ptr %12, align 8, !tbaa !19
  %13 = load ptr, ptr %2, align 8, !tbaa !3
  %14 = getelementptr inbounds nuw %struct.mpd_context_t, ptr %13, i32 0, i32 4
  store i32 0, ptr %14, align 4, !tbaa !20
  %15 = load ptr, ptr %2, align 8, !tbaa !3
  %16 = getelementptr inbounds nuw %struct.mpd_context_t, ptr %15, i32 0, i32 5
  store i32 0, ptr %16, align 8, !tbaa !21
  %17 = load ptr, ptr %2, align 8, !tbaa !3
  %18 = getelementptr inbounds nuw %struct.mpd_context_t, ptr %17, i32 0, i32 7
  store i32 0, ptr %18, align 8, !tbaa !22
  %19 = load ptr, ptr %2, align 8, !tbaa !3
  %20 = getelementptr inbounds nuw %struct.mpd_context_t, ptr %19, i32 0, i32 8
  store i32 1, ptr %20, align 4, !tbaa !23
  ret void
}